target datalayout = "e-m:e-p270:32:32-p271:32:32-p272:64:64-i64:64-i128:128-f80:128-n8:16:32:64-S128"
target triple = "x86_64-pc-linux-gnu"

%struct._address = type { i32, i32, ptr, ptr }

@cid_adj_array_size = internal global i32 0, align 4
@cid_vernier = internal global [64 x i32] zeroinitializer, align 16
@cid_adjust = internal global [64 x i32] zeroinitializer, align 16
@bs_address = external global %struct._address, align 8
@seen_a_service_type = external global i32, align 4
@max_logical_bands = external global i32, align 4

; Function Attrs: null_pointer_is_valid sspstrong uwtable
define internal void @wimax_defragment_init() #0 {
  %1 = alloca i32, align 4
  call void @llvm.lifetime.start.p0(i64 4, ptr %1) #8
  store i32 0, ptr %1, align 4
  br label %2

2:                                                ; preds = %12, %0
  %3 = load i32, ptr %1, align 4
  %4 = icmp slt i32 %3, 64
  br i1 %4, label %5, label %15

5:                                                ; preds = %2
  %6 = load i32, ptr %1, align 4
  %7 = sext i32 %6 to i64
  %8 = getelementptr [64 x i32], ptr @cid_adjust, i64 0, i64 %7
  store i32 1, ptr %8, align 4
  %9 = load i32, ptr %1, align 4
  %10 = sext i32 %9 to i64
  %11 = getelementptr [64 x i32], ptr @cid_vernier, i64 0, i64 %10
  store i32 0, ptr %11, align 4
  br label %12

12:                                               ; preds = %5
  %13 = load i32, ptr %1, align 4
  %14 = add i32 %13, 1
  store i32 %14, ptr %1, align 4
  br label %2, !llvm.loop !12

15:                                               ; preds = %2
  store i32 0, ptr @cid_adj_array_size, align 4
  store i32 0, ptr getelementptr inbounds nuw (%struct._address, ptr @bs_address, i32 0, i32 1), align 4
  store i32 0, ptr @seen_a_service_type, align 4
  store i32 12, ptr @max_logical_bands, align 4
  call void @init_wimax_globals()
  call void @llvm.lifetime.end.p0(i64 4, ptr %1) #8
  ret void
}