; Function Attrs: null_pointer_is_valid sspstrong uwtable
define internal void @wimax_defragment_init() #0 {
  tail call void @llvm.memset.p0.i64(ptr noundef nonnull align 16 dereferenceable(256) @cid_vernier, i8 0, i64 256, i1 false)
  br label %1

1:                                                ; preds = %0, %1
  %indvars.iv = phi i64 [ 0, %0 ], [ %indvars.iv.next, %1 ]
  %2 = getelementptr [64 x i32], ptr @cid_adjust, i64 0, i64 %indvars.iv
  store i32 1, ptr %2, align 4
  %indvars.iv.next = add nuw nsw i64 %indvars.iv, 1
  %exitcond.not = icmp eq i64 %indvars.iv.next, 64
  br i1 %exitcond.not, label %3, label %1, !llvm.loop !15

3:                                                ; preds = %1
  store i32 0, ptr @cid_adj_array_size, align 4
  store i32 0, ptr getelementptr inbounds nuw (i8, ptr @bs_address, i64 4), align 4
  store i32 0, ptr @seen_a_service_type, align 4
  store i32 12, ptr @max_logical_bands, align 4
  tail call void @init_wimax_globals()
  ret void
}